target datalayout = "e-m:e-p270:32:32-p271:32:32-p272:64:64-i64:64-i128:128-f80:128-n8:16:32:64-S128"
target triple = "x86_64-pc-linux-gnu"

%class.CgroupInfo = type { ptr, i32, i8, i8, i8, ptr, ptr, ptr }

; Function Attrs: mustprogress nounwind uwtable
define hidden void @_ZN22CgroupSubsystemFactory7cleanupEP10CgroupInfo(ptr noundef %0) #1 align 2 {
  %2 = alloca ptr, align 8
  %3 = alloca i32, align 4
  store ptr %0, ptr %2, align 8
  store i32 0, ptr %3, align 4
  br label %4

4:                                                ; preds = %32, %1
  %5 = load i32, ptr %3, align 4
  %6 = icmp slt i32 %5, 5
  br i1 %6, label %7, label %35

7:                                                ; preds = %4
  %8 = load ptr, ptr %2, align 8
  %9 = load i32, ptr %3, align 4
  %10 = sext i32 %9 to i64
  %11 = getelementptr inbounds %class.CgroupInfo, ptr %8, i64 %10
  %12 = getelementptr inbounds %class.CgroupInfo, ptr %11, i32 0, i32 0
  %13 = load ptr, ptr %12, align 8
  call void @_ZN2os4freeEPv(ptr noundef %13)
  %14 = load ptr, ptr %2, align 8
  %15 = load i32, ptr %3, align 4
  %16 = sext i32 %15 to i64
  %17 = getelementptr inbounds %class.CgroupInfo, ptr %14, i64 %16
  %18 = getelementptr inbounds %class.CgroupInfo, ptr %17, i32 0, i32 5
  %19 = load ptr, ptr %18, align 8
  call void @_ZN2os4freeEPv(ptr noundef %19)
  %20 = load ptr, ptr %2, align 8
  %21 = load i32, ptr %3, align 4
  %22 = sext i32 %21 to i64
  %23 = getelementptr inbounds %class.CgroupInfo, ptr %20, i64 %22
  %24 = getelementptr inbounds %class.CgroupInfo, ptr %23, i32 0, i32 6
  %25 = load ptr, ptr %24, align 8
  call void @_ZN2os4freeEPv(ptr noundef %25)
  %26 = load ptr, ptr %2, align 8
  %27 = load i32, ptr %3, align 4
  %28 = sext i32 %27 to i64
  %29 = getelementptr inbounds %class.CgroupInfo, ptr %26, i64 %28
  %30 = getelementptr inbounds %class.CgroupInfo, ptr %29, i32 0, i32 7
  %31 = load ptr, ptr %30, align 8
  call void @_ZN2os4freeEPv(ptr noundef %31)
  br label %32

32:                                               ; preds = %7
  %33 = load i32, ptr %3, align 4
  %34 = add nsw i32 %33, 1
  store i32 %34, ptr %3, align 4
  br label %4, !llvm.loop !16

35:                                               ; preds = %4
  ret void
}