; Function Attrs: mustprogress nounwind uwtable
define hidden void @_ZN22CgroupSubsystemFactory7cleanupEP10CgroupInfo(ptr nocapture noundef readonly %0) local_unnamed_addr #0 align 2 {
  br label %2

2:                                                ; preds = %1, %2
  %indvars.iv = phi i64 [ 0, %1 ], [ %indvars.iv.next, %2 ]
  %3 = getelementptr inbounds %class.CgroupInfo, ptr %0, i64 %indvars.iv
  %4 = load ptr, ptr %3, align 8
  tail call void @_ZN2os4freeEPv(ptr noundef %4) #13
  %5 = getelementptr inbounds i8, ptr %3, i64 16
  %6 = load ptr, ptr %5, align 8
  tail call void @_ZN2os4freeEPv(ptr noundef %6) #13
  %7 = getelementptr inbounds i8, ptr %3, i64 24
  %8 = load ptr, ptr %7, align 8
  tail call void @_ZN2os4freeEPv(ptr noundef %8) #13
  %9 = getelementptr inbounds i8, ptr %3, i64 32
  %10 = load ptr, ptr %9, align 8
  tail call void @_ZN2os4freeEPv(ptr noundef %10) #13
  %indvars.iv.next = add nuw nsw i64 %indvars.iv, 1
  %exitcond.not = icmp eq i64 %indvars.iv.next, 5
  br i1 %exitcond.not, label %11, label %2, !llvm.loop !6

11:                                               ; preds = %2
  ret void
}